target datalayout = "e-m:e-p270:32:32-p271:32:32-p272:64:64-i64:64-i128:128-f80:128-n8:16:32:64-S128"
target triple = "x86_64-pc-linux-gnu"

%struct.jpeg_compress_struct = type { ptr, ptr, ptr, ptr, i32, i32, ptr, i32, i32, i32, i32, double, i32, i32, i32, ptr, [4 x ptr], [4 x ptr], [4 x ptr], [16 x i8], [16 x i8], [16 x i8], i32, ptr, i32, i32, i32, i32, i32, i32, i32, i32, i32, i8, i8, i8, i16, i16, i32, i32, i32, i32, i32, i32, i32, [4 x ptr], i32, i32, i32, [10 x i32], i32, i32, i32, i32, ptr, ptr, ptr, ptr, ptr, ptr, ptr, ptr, ptr, ptr, i32 }
%struct.jpeg_memory_mgr = type { ptr, ptr, ptr, ptr, ptr, ptr, ptr, ptr, ptr, ptr, ptr, i64, i64 }
%struct.my_diff_controller = type { %struct.jpeg_c_coef_controller, i32, i32, i32, i32, [10 x ptr], [10 x ptr], [10 x ptr], [10 x ptr] }
%struct.jpeg_c_coef_controller = type { ptr, ptr, ptr, ptr }
%struct.jpeg_component_info = type { i32, i32, i32, i32, i32, i32, i32, i32, i32, i32, i32, i32, i32, i32, i32, i32, i32, i32, i32, ptr, ptr }

; Function Attrs: nounwind uwtable
define internal i32 @compress_output(ptr noundef %0, ptr noundef %1) #0 {
  %3 = alloca ptr, align 8
  %4 = alloca ptr, align 8
  %5 = alloca ptr, align 8
  %6 = alloca i32, align 4
  %7 = alloca i32, align 4
  %8 = alloca [4 x ptr], align 16
  %9 = alloca ptr, align 8
  store ptr %0, ptr %3, align 8, !tbaa !3
  store ptr %1, ptr %4, align 8, !tbaa !75
  call void @llvm.lifetime.start.p0(i64 8, ptr %5) #5
  %10 = load ptr, ptr %3, align 8, !tbaa !3
  %11 = getelementptr inbounds nuw %struct.jpeg_compress_struct, ptr %10, i32 0, i32 57
  %12 = load ptr, ptr %11, align 8, !tbaa !38
  store ptr %12, ptr %5, align 8, !tbaa !37
  call void @llvm.lifetime.start.p0(i64 4, ptr %6) #5
  call void @llvm.lifetime.start.p0(i64 4, ptr %7) #5
  call void @llvm.lifetime.start.p0(i64 32, ptr %8) #5
  call void @llvm.lifetime.start.p0(i64 8, ptr %9) #5
  store i32 0, ptr %6, align 4, !tbaa !8
  br label %13

13:                                               ; preds = %55, %2
  %14 = load i32, ptr %6, align 4, !tbaa !8
  %15 = load ptr, ptr %3, align 8, !tbaa !3
  %16 = getelementptr inbounds nuw %struct.jpeg_compress_struct, ptr %15, i32 0, i32 44
  %17 = load i32, ptr %16, align 4, !tbaa !69
  %18 = icmp slt i32 %14, %17
  br i1 %18, label %19, label %58

19:                                               ; preds = %13
  %20 = load ptr, ptr %3, align 8, !tbaa !3
  %21 = getelementptr inbounds nuw %struct.jpeg_compress_struct, ptr %20, i32 0, i32 45
  %22 = load i32, ptr %6, align 4, !tbaa !8
  %23 = sext i32 %22 to i64
  %24 = getelementptr inbounds [4 x ptr], ptr %21, i64 0, i64 %23
  %25 = load ptr, ptr %24, align 8, !tbaa !37
  store ptr %25, ptr %9, align 8, !tbaa !37
  %26 = load ptr, ptr %9, align 8, !tbaa !37
  %27 = getelementptr inbounds nuw %struct.jpeg_component_info, ptr %26, i32 0, i32 1
  %28 = load i32, ptr %27, align 4, !tbaa !77
  store i32 %28, ptr %7, align 4, !tbaa !8
  %29 = load ptr, ptr %3, align 8, !tbaa !3
  %30 = getelementptr inbounds nuw %struct.jpeg_compress_struct, ptr %29, i32 0, i32 1
  %31 = load ptr, ptr %30, align 8, !tbaa !34
  %32 = getelementptr inbounds nuw %struct.jpeg_memory_mgr, ptr %31, i32 0, i32 7
  %33 = load ptr, ptr %32, align 8, !tbaa !89
  %34 = load ptr, ptr %3, align 8, !tbaa !3
  %35 = load ptr, ptr %5, align 8, !tbaa !37
  %36 = getelementptr inbounds nuw %struct.my_diff_controller, ptr %35, i32 0, i32 8
  %37 = load i32, ptr %7, align 4, !tbaa !8
  %38 = sext i32 %37 to i64
  %39 = getelementptr inbounds [10 x ptr], ptr %36, i64 0, i64 %38
  %40 = load ptr, ptr %39, align 8, !tbaa !61
  %41 = load ptr, ptr %5, align 8, !tbaa !37
  %42 = getelementptr inbounds nuw %struct.my_diff_controller, ptr %41, i32 0, i32 1
  %43 = load i32, ptr %42, align 8, !tbaa !67
  %44 = load ptr, ptr %9, align 8, !tbaa !37
  %45 = getelementptr inbounds nuw %struct.jpeg_component_info, ptr %44, i32 0, i32 3
  %46 = load i32, ptr %45, align 4, !tbaa !52
  %47 = mul i32 %43, %46
  %48 = load ptr, ptr %9, align 8, !tbaa !37
  %49 = getelementptr inbounds nuw %struct.jpeg_component_info, ptr %48, i32 0, i32 3
  %50 = load i32, ptr %49, align 4, !tbaa !52
  %51 = call ptr %33(ptr noundef %34, ptr noundef %40, i32 noundef %47, i32 noundef %50, i32 noundef 0)
  %52 = load i32, ptr %7, align 4, !tbaa !8
  %53 = sext i32 %52 to i64
  %54 = getelementptr inbounds [4 x ptr], ptr %8, i64 0, i64 %53
  store ptr %51, ptr %54, align 8, !tbaa !81
  br label %55

55:                                               ; preds = %19
  %56 = load i32, ptr %6, align 4, !tbaa !8
  %57 = add nsw i32 %56, 1
  store i32 %57, ptr %6, align 4, !tbaa !8
  br label %13, !llvm.loop !92

58:                                               ; preds = %13
  %59 = load ptr, ptr %3, align 8, !tbaa !3
  %60 = getelementptr inbounds [4 x ptr], ptr %8, i64 0, i64 0
  %61 = call i32 @compress_data(ptr noundef %59, ptr noundef %60)
  call void @llvm.lifetime.end.p0(i64 8, ptr %9) #5
  call void @llvm.lifetime.end.p0(i64 32, ptr %8) #5
  call void @llvm.lifetime.end.p0(i64 4, ptr %7) #5
  call void @llvm.lifetime.end.p0(i64 4, ptr %6) #5
  call void @llvm.lifetime.end.p0(i64 8, ptr %5) #5
  ret i32 %61
}