; Function Attrs: nounwind uwtable
define internal range(i32 0, 2) i32 @compress_output(ptr noundef %0, ptr readnone captures(none) %1) #0 {
  %3 = alloca [4 x ptr], align 16
  %4 = getelementptr inbounds nuw i8, ptr %0, i64 456
  %5 = load ptr, ptr %4, align 8, !tbaa !34
  call void @llvm.lifetime.start.p0(i64 32, ptr nonnull %3) #5
  %6 = getelementptr inbounds nuw i8, ptr %0, i64 324
  %7 = load i32, ptr %6, align 4, !tbaa !64
  %8 = icmp sgt i32 %7, 0
  br i1 %8, label %.lr.ph, label %._crit_edge

.lr.ph:                                           ; preds = %2
  %9 = getelementptr inbounds nuw i8, ptr %0, i64 328
  %10 = getelementptr inbounds nuw i8, ptr %0, i64 8
  %11 = getelementptr inbounds nuw i8, ptr %5, i64 288
  %12 = getelementptr inbounds nuw i8, ptr %5, i64 32
  br label %13

13:                                               ; preds = %.lr.ph, %13
  %indvars.iv = phi i64 [ 0, %.lr.ph ], [ %indvars.iv.next, %13 ]
  %14 = getelementptr inbounds nuw [4 x ptr], ptr %9, i64 0, i64 %indvars.iv
  %15 = load ptr, ptr %14, align 8, !tbaa !67
  %16 = getelementptr inbounds nuw i8, ptr %15, i64 4
  %17 = load i32, ptr %16, align 4, !tbaa !72
  %18 = load ptr, ptr %10, align 8, !tbaa !31
  %19 = getelementptr inbounds nuw i8, ptr %18, i64 56
  %20 = load ptr, ptr %19, align 8, !tbaa !84
  %21 = sext i32 %17 to i64
  %22 = getelementptr inbounds [10 x ptr], ptr %11, i64 0, i64 %21
  %23 = load ptr, ptr %22, align 8, !tbaa !57
  %24 = load i32, ptr %12, align 8, !tbaa !63
  %25 = getelementptr inbounds nuw i8, ptr %15, i64 12
  %26 = load i32, ptr %25, align 4, !tbaa !48
  %27 = mul i32 %26, %24
  %28 = tail call ptr %20(ptr noundef nonnull %0, ptr noundef %23, i32 noundef %27, i32 noundef %26, i32 noundef 0) #5
  %29 = getelementptr inbounds [4 x ptr], ptr %3, i64 0, i64 %21
  store ptr %28, ptr %29, align 8, !tbaa !76
  %indvars.iv.next = add nuw nsw i64 %indvars.iv, 1
  %30 = load i32, ptr %6, align 4, !tbaa !64
  %31 = sext i32 %30 to i64
  %32 = icmp slt i64 %indvars.iv.next, %31
  br i1 %32, label %13, label %._crit_edge, !llvm.loop !87

._crit_edge:                                      ; preds = %13, %2
  %33 = call i32 @compress_data(ptr noundef nonnull %0, ptr noundef nonnull %3)
  call void @llvm.lifetime.end.p0(i64 32, ptr nonnull %3) #5
  ret i32 %33
}